; Function Attrs: mustprogress nounwind uwtable
define dso_local i32 @_ZNK5clang12CXXScopeSpec23getLastQualifierNameLocEv(ptr nocapture noundef nonnull readonly align 8 dereferenceable(48) %0) local_unnamed_addr #2 align 2 {
  %2 = alloca %"class.clang::NestedNameSpecifierLoc", align 8
  %3 = getelementptr inbounds nuw i8, ptr %0, i64 8
  %4 = load ptr, ptr %3, align 8
  %.not = icmp eq ptr %4, null
  br i1 %.not, label %10, label %5

5:                                                ; preds = %1
  %6 = getelementptr inbounds i8, ptr %0, i64 16
  %7 = load ptr, ptr %6, align 8
  store ptr %4, ptr %2, align 8
  %8 = getelementptr inbounds nuw i8, ptr %2, i64 8
  store ptr %7, ptr %8, align 8
  %9 = call i64 @_ZNK5clang22NestedNameSpecifierLoc19getLocalSourceRangeEv(ptr noundef nonnull align 8 dereferenceable(16) %2) #21
  %.sroa.0.0.extract.trunc.i = trunc i64 %9 to i32
  br label %10

10:                                               ; preds = %1, %5
  %.sroa.0.0 = phi i32 [ %.sroa.0.0.extract.trunc.i, %5 ], [ 0, %1 ]
  ret i32 %.sroa.0.0
}